
system_3_0.elf:     file format elf32-littleriscv


Disassembly of section .text:

00010074 <main>:
}

int main(void)
{
   // program gpio event add
   int CT = CA_CT;
   10074:	800017b7          	lui	a5,0x80001
   10078:	478c                	lw	a1,8(a5)
{
   1007a:	1141                	addi	sp,sp,-16
   gpio(0x0, CT);
   1007c:	4501                	li	a0,0
{
   1007e:	c606                	sw	ra,12(sp)
   gpio(0x0, CT);
   10080:	2a85                	jal	101f0 <gpio>

   // program gpio level
   GPIO_0_LVL1 = 0xff;
   10082:	0ff00793          	li	a5,255
   10086:	80030737          	lui	a4,0x80030
   1008a:	db5c                	sw	a5,52(a4)
   GPIO_1_LVL1 = 0xff;
   1008c:	12f72a23          	sw	a5,308(a4) # 80030134 <__global_pointer$+0x8001ddac>
   GPIO_2_LVL1 = 0xff;
   10090:	22f72a23          	sw	a5,564(a4)
   GPIO_3_LVL1 = 0xff;
   10094:	32f72a23          	sw	a5,820(a4)
   GPIO_4_LVL1 = 0xff;
   10098:	42f72a23          	sw	a5,1076(a4)
   GPIO_5_LVL1 = 0xff;
   1009c:	52f72a23          	sw	a5,1332(a4)
   GPIO_6_LVL1 = 0xff;
   100a0:	62f72a23          	sw	a5,1588(a4)
   GPIO_7_LVL1 = 0xff;
   100a4:	72f72a23          	sw	a5,1844(a4)
   GPIO_8_LVL1 = 0xff;
   100a8:	80031737          	lui	a4,0x80031
   100ac:	82f72a23          	sw	a5,-1996(a4) # 80030834 <__global_pointer$+0x8001e4ac>
   //GPIO_9_LVL1 = 0xff;
   //GPIO_10_LVL1 = 0xff;
   //GPIO_11_LVL1 = 0xff;

   TC_KILL = 0x0;
   100b0:	800007b7          	lui	a5,0x80000
   100b4:	0007a223          	sw	zero,4(a5) # 80000004 <__global_pointer$+0x7ffedc7c>
   asm volatile ("addi x0, x0, 0");
   100b8:	00000013          	nop

}
   100bc:	40b2                	lw	ra,12(sp)
   100be:	4501                	li	a0,0
   100c0:	0141                	addi	sp,sp,16
   100c2:	8082                	ret

000100c4 <_start>:
   100c4:	00002197          	auipc	gp,0x2
   100c8:	2c418193          	addi	gp,gp,708 # 12388 <__global_pointer$>
   100cc:	80818513          	addi	a0,gp,-2040 # 11b90 <_edata>
   100d0:	82418613          	addi	a2,gp,-2012 # 11bac <_end>
   100d4:	40a60633          	sub	a2,a2,a0
   100d8:	00000593          	li	a1,0
   100dc:	37c000ef          	jal	ra,10458 <memset>
   100e0:	00000517          	auipc	a0,0x0
   100e4:	26c50513          	addi	a0,a0,620 # 1034c <__libc_fini_array>
   100e8:	218000ef          	jal	ra,10300 <atexit>
   100ec:	2d4000ef          	jal	ra,103c0 <__libc_init_array>
   100f0:	00012503          	lw	a0,0(sp)
   100f4:	00410593          	addi	a1,sp,4
   100f8:	00000613          	li	a2,0
   100fc:	f79ff0ef          	jal	ra,10074 <main>
   10100:	2140006f          	j	10314 <exit>

00010104 <_fini>:
   10104:	00008067          	ret

00010108 <deregister_tm_clones>:
   10108:	00002517          	auipc	a0,0x2
   1010c:	a8050513          	addi	a0,a0,-1408 # 11b88 <_global_impure_ptr>
   10110:	00002797          	auipc	a5,0x2
   10114:	a7878793          	addi	a5,a5,-1416 # 11b88 <_global_impure_ptr>
   10118:	00a78a63          	beq	a5,a0,1012c <deregister_tm_clones+0x24>
   1011c:	ffff0317          	auipc	t1,0xffff0
   10120:	ee430313          	addi	t1,t1,-284 # 0 <main-0x10074>
   10124:	00030463          	beqz	t1,1012c <deregister_tm_clones+0x24>
   10128:	00030067          	jr	t1
   1012c:	00008067          	ret

00010130 <register_tm_clones>:
   10130:	00002517          	auipc	a0,0x2
   10134:	a5850513          	addi	a0,a0,-1448 # 11b88 <_global_impure_ptr>
   10138:	00002597          	auipc	a1,0x2
   1013c:	a5058593          	addi	a1,a1,-1456 # 11b88 <_global_impure_ptr>
   10140:	40a585b3          	sub	a1,a1,a0
   10144:	4025d593          	srai	a1,a1,0x2
   10148:	00200793          	li	a5,2
   1014c:	02f5c5b3          	div	a1,a1,a5
   10150:	00058a63          	beqz	a1,10164 <register_tm_clones+0x34>
   10154:	ffff0317          	auipc	t1,0xffff0
   10158:	eac30313          	addi	t1,t1,-340 # 0 <main-0x10074>
   1015c:	00030463          	beqz	t1,10164 <register_tm_clones+0x34>
   10160:	00030067          	jr	t1
   10164:	00008067          	ret

00010168 <__do_global_dtors_aux>:
   10168:	00002797          	auipc	a5,0x2
   1016c:	a287c783          	lbu	a5,-1496(a5) # 11b90 <_edata>
   10170:	04079263          	bnez	a5,101b4 <__do_global_dtors_aux+0x4c>
   10174:	ff010113          	addi	sp,sp,-16
   10178:	00112623          	sw	ra,12(sp)
   1017c:	f8dff0ef          	jal	ra,10108 <deregister_tm_clones>
   10180:	ffff0797          	auipc	a5,0xffff0
   10184:	e8078793          	addi	a5,a5,-384 # 0 <main-0x10074>
   10188:	00078a63          	beqz	a5,1019c <__do_global_dtors_aux+0x34>
   1018c:	00000517          	auipc	a0,0x0
   10190:	5c450513          	addi	a0,a0,1476 # 10750 <__EH_FRAME_BEGIN__>
   10194:	ffff0097          	auipc	ra,0xffff0
   10198:	e6c080e7          	jalr	-404(ra) # 0 <main-0x10074>
   1019c:	00c12083          	lw	ra,12(sp)
   101a0:	00100793          	li	a5,1
   101a4:	00002717          	auipc	a4,0x2
   101a8:	9ef70623          	sb	a5,-1556(a4) # 11b90 <_edata>
   101ac:	01010113          	addi	sp,sp,16
   101b0:	00008067          	ret
   101b4:	00008067          	ret

000101b8 <frame_dummy>:
   101b8:	ffff0797          	auipc	a5,0xffff0
   101bc:	e4878793          	addi	a5,a5,-440 # 0 <main-0x10074>
   101c0:	02078663          	beqz	a5,101ec <frame_dummy+0x34>
   101c4:	ff010113          	addi	sp,sp,-16
   101c8:	00002597          	auipc	a1,0x2
   101cc:	9cc58593          	addi	a1,a1,-1588 # 11b94 <object.5181>
   101d0:	00000517          	auipc	a0,0x0
   101d4:	58050513          	addi	a0,a0,1408 # 10750 <__EH_FRAME_BEGIN__>
   101d8:	00112623          	sw	ra,12(sp)
   101dc:	ffff0097          	auipc	ra,0xffff0
   101e0:	e24080e7          	jalr	-476(ra) # 0 <main-0x10074>
   101e4:	00c12083          	lw	ra,12(sp)
   101e8:	01010113          	addi	sp,sp,16
   101ec:	f45ff06f          	j	10130 <register_tm_clones>

000101f0 <gpio>:
   if (start_time >= 0) {
   101f0:	0005cc63          	bltz	a1,10208 <gpio+0x18>
      GPIO_EVENT_ADD = (((unsigned)&&gpio_label >> 1) & 0x3fff);
   101f4:	000107b7          	lui	a5,0x10
   101f8:	20878793          	addi	a5,a5,520 # 10208 <gpio+0x18>
   101fc:	07c6                	slli	a5,a5,0x11
   101fe:	83c9                	srli	a5,a5,0x12
   10200:	80031737          	lui	a4,0x80031
   10204:	c31c                	sw	a5,0(a4)
   10206:	8082                	ret
         switch (tag >> 3) {
   10208:	00355793          	srli	a5,a0,0x3
   1020c:	472d                	li	a4,11
   1020e:	00f76f63          	bltu	a4,a5,1022c <gpio+0x3c>
   10212:	6741                	lui	a4,0x10
   10214:	078a                	slli	a5,a5,0x2
   10216:	72070713          	addi	a4,a4,1824 # 10720 <__errno+0x10>
   1021a:	97ba                	add	a5,a5,a4
   1021c:	439c                	lw	a5,0(a5)
   1021e:	8782                	jr	a5
            case 0:  GPIO_0_OUT_SET  = 0x1 << (tag & 0x7); break;
   10220:	4785                	li	a5,1
   10222:	00a79533          	sll	a0,a5,a0
   10226:	800307b7          	lui	a5,0x80030
   1022a:	cbc8                	sw	a0,20(a5)
         TC_KILL = 0x0;
   1022c:	800007b7          	lui	a5,0x80000
   10230:	0007a223          	sw	zero,4(a5) # 80000004 <__global_pointer$+0x7ffedc7c>
         asm volatile ("addi x0, x0, 0");
   10234:	00000013          	nop
}
   10238:	8082                	ret
            case 1:  GPIO_1_OUT_SET  = 0x1 << (tag & 0x7); break;
   1023a:	4785                	li	a5,1
   1023c:	891d                	andi	a0,a0,7
   1023e:	00a79533          	sll	a0,a5,a0
   10242:	800307b7          	lui	a5,0x80030
   10246:	10a7aa23          	sw	a0,276(a5) # 80030114 <__global_pointer$+0x8001dd8c>
   1024a:	b7cd                	j	1022c <gpio+0x3c>
            case 2:  GPIO_2_OUT_SET  = 0x1 << (tag & 0x7); break;
   1024c:	4785                	li	a5,1
   1024e:	891d                	andi	a0,a0,7
   10250:	00a79533          	sll	a0,a5,a0
   10254:	800307b7          	lui	a5,0x80030
   10258:	20a7aa23          	sw	a0,532(a5) # 80030214 <__global_pointer$+0x8001de8c>
   1025c:	bfc1                	j	1022c <gpio+0x3c>
            case 3:  GPIO_3_OUT_SET  = 0x1 << (tag & 0x7); break;
   1025e:	4785                	li	a5,1
   10260:	891d                	andi	a0,a0,7
   10262:	00a79533          	sll	a0,a5,a0
   10266:	800307b7          	lui	a5,0x80030
   1026a:	30a7aa23          	sw	a0,788(a5) # 80030314 <__global_pointer$+0x8001df8c>
   1026e:	bf7d                	j	1022c <gpio+0x3c>
            case 4:  GPIO_4_OUT_SET  = 0x1 << (tag & 0x7); break;
   10270:	4785                	li	a5,1
   10272:	891d                	andi	a0,a0,7
   10274:	00a79533          	sll	a0,a5,a0
   10278:	800307b7          	lui	a5,0x80030
   1027c:	40a7aa23          	sw	a0,1044(a5) # 80030414 <__global_pointer$+0x8001e08c>
   10280:	b775                	j	1022c <gpio+0x3c>
            case 5:  GPIO_5_OUT_SET  = 0x1 << (tag & 0x7); break;
   10282:	4785                	li	a5,1
   10284:	891d                	andi	a0,a0,7
   10286:	00a79533          	sll	a0,a5,a0
   1028a:	800307b7          	lui	a5,0x80030
   1028e:	50a7aa23          	sw	a0,1300(a5) # 80030514 <__global_pointer$+0x8001e18c>
   10292:	bf69                	j	1022c <gpio+0x3c>
            case 6:  GPIO_6_OUT_SET  = 0x1 << (tag & 0x7); break;
   10294:	4785                	li	a5,1
   10296:	891d                	andi	a0,a0,7
   10298:	00a79533          	sll	a0,a5,a0
   1029c:	800307b7          	lui	a5,0x80030
   102a0:	60a7aa23          	sw	a0,1556(a5) # 80030614 <__global_pointer$+0x8001e28c>
   102a4:	b761                	j	1022c <gpio+0x3c>
            case 7:  GPIO_7_OUT_SET  = 0x1 << (tag & 0x7); break;
   102a6:	4785                	li	a5,1
   102a8:	891d                	andi	a0,a0,7
   102aa:	00a79533          	sll	a0,a5,a0
   102ae:	800307b7          	lui	a5,0x80030
   102b2:	70a7aa23          	sw	a0,1812(a5) # 80030714 <__global_pointer$+0x8001e38c>
   102b6:	bf9d                	j	1022c <gpio+0x3c>
            case 8:  GPIO_8_OUT_SET  = 0x1 << (tag & 0x7); break;
   102b8:	4785                	li	a5,1
   102ba:	891d                	andi	a0,a0,7
   102bc:	00a79533          	sll	a0,a5,a0
   102c0:	800317b7          	lui	a5,0x80031
   102c4:	80a7aa23          	sw	a0,-2028(a5) # 80030814 <__global_pointer$+0x8001e48c>
   102c8:	b795                	j	1022c <gpio+0x3c>
            case 9:  GPIO_9_OUT_SET  = 0x1 << (tag & 0x7); break;
   102ca:	4785                	li	a5,1
   102cc:	891d                	andi	a0,a0,7
   102ce:	00a79533          	sll	a0,a5,a0
   102d2:	800317b7          	lui	a5,0x80031
   102d6:	90a7aa23          	sw	a0,-1772(a5) # 80030914 <__global_pointer$+0x8001e58c>
   102da:	bf89                	j	1022c <gpio+0x3c>
            case 10: GPIO_10_OUT_SET = 0x1 << (tag & 0x7); break;
   102dc:	4785                	li	a5,1
   102de:	891d                	andi	a0,a0,7
   102e0:	00a79533          	sll	a0,a5,a0
   102e4:	800317b7          	lui	a5,0x80031
   102e8:	a0a7aa23          	sw	a0,-1516(a5) # 80030a14 <__global_pointer$+0x8001e68c>
   102ec:	b781                	j	1022c <gpio+0x3c>
            case 11: GPIO_11_OUT_SET = 0x1 << (tag & 0x7); break;
   102ee:	4785                	li	a5,1
   102f0:	891d                	andi	a0,a0,7
   102f2:	00a79533          	sll	a0,a5,a0
   102f6:	800317b7          	lui	a5,0x80031
   102fa:	b0a7aa23          	sw	a0,-1260(a5) # 80030b14 <__global_pointer$+0x8001e78c>
   102fe:	b73d                	j	1022c <gpio+0x3c>

00010300 <atexit>:
   10300:	00050593          	mv	a1,a0
   10304:	00000693          	li	a3,0
   10308:	00000613          	li	a2,0
   1030c:	00000513          	li	a0,0
   10310:	2240006f          	j	10534 <__register_exitproc>

00010314 <exit>:
   10314:	ff010113          	addi	sp,sp,-16
   10318:	00000593          	li	a1,0
   1031c:	00812423          	sw	s0,8(sp)
   10320:	00112623          	sw	ra,12(sp)
   10324:	00050413          	mv	s0,a0
   10328:	290000ef          	jal	ra,105b8 <__call_exitprocs>
   1032c:	00002797          	auipc	a5,0x2
   10330:	85c78793          	addi	a5,a5,-1956 # 11b88 <_global_impure_ptr>
   10334:	0007a503          	lw	a0,0(a5)
   10338:	03c52783          	lw	a5,60(a0)
   1033c:	00078463          	beqz	a5,10344 <exit+0x30>
   10340:	000780e7          	jalr	a5
   10344:	00040513          	mv	a0,s0
   10348:	384000ef          	jal	ra,106cc <_exit>

0001034c <__libc_fini_array>:
   1034c:	fe010113          	addi	sp,sp,-32
   10350:	00001797          	auipc	a5,0x1
   10354:	40c78793          	addi	a5,a5,1036 # 1175c <__fini_array_end>
   10358:	00812c23          	sw	s0,24(sp)
   1035c:	00001417          	auipc	s0,0x1
   10360:	3fc40413          	addi	s0,s0,1020 # 11758 <__init_array_end>
   10364:	40878433          	sub	s0,a5,s0
   10368:	00912a23          	sw	s1,20(sp)
   1036c:	01212823          	sw	s2,16(sp)
   10370:	01312623          	sw	s3,12(sp)
   10374:	00112e23          	sw	ra,28(sp)
   10378:	40245413          	srai	s0,s0,0x2
   1037c:	00000493          	li	s1,0
   10380:	00078913          	mv	s2,a5
   10384:	ffc00993          	li	s3,-4
   10388:	02941063          	bne	s0,s1,103a8 <__libc_fini_array+0x5c>
   1038c:	01812403          	lw	s0,24(sp)
   10390:	01c12083          	lw	ra,28(sp)
   10394:	01412483          	lw	s1,20(sp)
   10398:	01012903          	lw	s2,16(sp)
   1039c:	00c12983          	lw	s3,12(sp)
   103a0:	02010113          	addi	sp,sp,32
   103a4:	d61ff06f          	j	10104 <_fini>
   103a8:	033487b3          	mul	a5,s1,s3
   103ac:	00148493          	addi	s1,s1,1
   103b0:	00f907b3          	add	a5,s2,a5
   103b4:	ffc7a783          	lw	a5,-4(a5)
   103b8:	000780e7          	jalr	a5
   103bc:	fcdff06f          	j	10388 <__libc_fini_array+0x3c>

000103c0 <__libc_init_array>:
   103c0:	ff010113          	addi	sp,sp,-16
   103c4:	00812423          	sw	s0,8(sp)
   103c8:	00912223          	sw	s1,4(sp)
   103cc:	00001417          	auipc	s0,0x1
   103d0:	38840413          	addi	s0,s0,904 # 11754 <__frame_dummy_init_array_entry>
   103d4:	00001497          	auipc	s1,0x1
   103d8:	38048493          	addi	s1,s1,896 # 11754 <__frame_dummy_init_array_entry>
   103dc:	408484b3          	sub	s1,s1,s0
   103e0:	01212023          	sw	s2,0(sp)
   103e4:	00112623          	sw	ra,12(sp)
   103e8:	4024d493          	srai	s1,s1,0x2
   103ec:	00000913          	li	s2,0
   103f0:	04991063          	bne	s2,s1,10430 <__libc_init_array+0x70>
   103f4:	00001417          	auipc	s0,0x1
   103f8:	36040413          	addi	s0,s0,864 # 11754 <__frame_dummy_init_array_entry>
   103fc:	00001497          	auipc	s1,0x1
   10400:	35c48493          	addi	s1,s1,860 # 11758 <__init_array_end>
   10404:	408484b3          	sub	s1,s1,s0
   10408:	cfdff0ef          	jal	ra,10104 <_fini>
   1040c:	4024d493          	srai	s1,s1,0x2
   10410:	00000913          	li	s2,0
   10414:	02991863          	bne	s2,s1,10444 <__libc_init_array+0x84>
   10418:	00c12083          	lw	ra,12(sp)
   1041c:	00812403          	lw	s0,8(sp)
   10420:	00412483          	lw	s1,4(sp)
   10424:	00012903          	lw	s2,0(sp)
   10428:	01010113          	addi	sp,sp,16
   1042c:	00008067          	ret
   10430:	00042783          	lw	a5,0(s0)
   10434:	00190913          	addi	s2,s2,1
   10438:	00440413          	addi	s0,s0,4
   1043c:	000780e7          	jalr	a5
   10440:	fb1ff06f          	j	103f0 <__libc_init_array+0x30>
   10444:	00042783          	lw	a5,0(s0)
   10448:	00190913          	addi	s2,s2,1
   1044c:	00440413          	addi	s0,s0,4
   10450:	000780e7          	jalr	a5
   10454:	fc1ff06f          	j	10414 <__libc_init_array+0x54>

00010458 <memset>:
   10458:	00f00313          	li	t1,15
   1045c:	00050713          	mv	a4,a0
   10460:	02c37e63          	bleu	a2,t1,1049c <memset+0x44>
   10464:	00f77793          	andi	a5,a4,15
   10468:	0a079063          	bnez	a5,10508 <memset+0xb0>
   1046c:	08059263          	bnez	a1,104f0 <memset+0x98>
   10470:	ff067693          	andi	a3,a2,-16
   10474:	00f67613          	andi	a2,a2,15
   10478:	00e686b3          	add	a3,a3,a4
   1047c:	00b72023          	sw	a1,0(a4)
   10480:	00b72223          	sw	a1,4(a4)
   10484:	00b72423          	sw	a1,8(a4)
   10488:	00b72623          	sw	a1,12(a4)
   1048c:	01070713          	addi	a4,a4,16
   10490:	fed766e3          	bltu	a4,a3,1047c <memset+0x24>
   10494:	00061463          	bnez	a2,1049c <memset+0x44>
   10498:	00008067          	ret
   1049c:	40c306b3          	sub	a3,t1,a2
   104a0:	00269693          	slli	a3,a3,0x2
   104a4:	00000297          	auipc	t0,0x0
   104a8:	005686b3          	add	a3,a3,t0
   104ac:	00c68067          	jr	12(a3)
   104b0:	00b70723          	sb	a1,14(a4)
   104b4:	00b706a3          	sb	a1,13(a4)
   104b8:	00b70623          	sb	a1,12(a4)
   104bc:	00b705a3          	sb	a1,11(a4)
   104c0:	00b70523          	sb	a1,10(a4)
   104c4:	00b704a3          	sb	a1,9(a4)
   104c8:	00b70423          	sb	a1,8(a4)
   104cc:	00b703a3          	sb	a1,7(a4)
   104d0:	00b70323          	sb	a1,6(a4)
   104d4:	00b702a3          	sb	a1,5(a4)
   104d8:	00b70223          	sb	a1,4(a4)
   104dc:	00b701a3          	sb	a1,3(a4)
   104e0:	00b70123          	sb	a1,2(a4)
   104e4:	00b700a3          	sb	a1,1(a4)
   104e8:	00b70023          	sb	a1,0(a4)
   104ec:	00008067          	ret
   104f0:	0ff5f593          	andi	a1,a1,255
   104f4:	00859693          	slli	a3,a1,0x8
   104f8:	00d5e5b3          	or	a1,a1,a3
   104fc:	01059693          	slli	a3,a1,0x10
   10500:	00d5e5b3          	or	a1,a1,a3
   10504:	f6dff06f          	j	10470 <memset+0x18>
   10508:	00279693          	slli	a3,a5,0x2
   1050c:	00000297          	auipc	t0,0x0
   10510:	005686b3          	add	a3,a3,t0
   10514:	00008293          	mv	t0,ra
   10518:	fa0680e7          	jalr	-96(a3)
   1051c:	00028093          	mv	ra,t0
   10520:	ff078793          	addi	a5,a5,-16
   10524:	40f70733          	sub	a4,a4,a5
   10528:	00f60633          	add	a2,a2,a5
   1052c:	f6c378e3          	bleu	a2,t1,1049c <memset+0x44>
   10530:	f3dff06f          	j	1046c <memset+0x14>

00010534 <__register_exitproc>:
   10534:	00001797          	auipc	a5,0x1
   10538:	65478793          	addi	a5,a5,1620 # 11b88 <_global_impure_ptr>
   1053c:	0007a703          	lw	a4,0(a5)
   10540:	00050313          	mv	t1,a0
   10544:	14872783          	lw	a5,328(a4)
   10548:	00079663          	bnez	a5,10554 <__register_exitproc+0x20>
   1054c:	14c70793          	addi	a5,a4,332
   10550:	14f72423          	sw	a5,328(a4)
   10554:	0047a703          	lw	a4,4(a5)
   10558:	01f00813          	li	a6,31
   1055c:	fff00513          	li	a0,-1
   10560:	04e84a63          	blt	a6,a4,105b4 <__register_exitproc+0x80>
   10564:	00271893          	slli	a7,a4,0x2
   10568:	02030c63          	beqz	t1,105a0 <__register_exitproc+0x6c>
   1056c:	01178533          	add	a0,a5,a7
   10570:	08c52423          	sw	a2,136(a0)
   10574:	1887a803          	lw	a6,392(a5)
   10578:	00100613          	li	a2,1
   1057c:	00e61633          	sll	a2,a2,a4
   10580:	00c86833          	or	a6,a6,a2
   10584:	1907a423          	sw	a6,392(a5)
   10588:	10d52423          	sw	a3,264(a0)
   1058c:	00200693          	li	a3,2
   10590:	00d31863          	bne	t1,a3,105a0 <__register_exitproc+0x6c>
   10594:	18c7a683          	lw	a3,396(a5)
   10598:	00c6e633          	or	a2,a3,a2
   1059c:	18c7a623          	sw	a2,396(a5)
   105a0:	00170713          	addi	a4,a4,1
   105a4:	00e7a223          	sw	a4,4(a5)
   105a8:	011787b3          	add	a5,a5,a7
   105ac:	00b7a423          	sw	a1,8(a5)
   105b0:	00000513          	li	a0,0
   105b4:	00008067          	ret

000105b8 <__call_exitprocs>:
   105b8:	fd010113          	addi	sp,sp,-48
   105bc:	00001797          	auipc	a5,0x1
   105c0:	5cc78793          	addi	a5,a5,1484 # 11b88 <_global_impure_ptr>
   105c4:	01312e23          	sw	s3,28(sp)
   105c8:	0007a983          	lw	s3,0(a5)
   105cc:	01412c23          	sw	s4,24(sp)
   105d0:	01512a23          	sw	s5,20(sp)
   105d4:	01612823          	sw	s6,16(sp)
   105d8:	02112623          	sw	ra,44(sp)
   105dc:	02812423          	sw	s0,40(sp)
   105e0:	02912223          	sw	s1,36(sp)
   105e4:	03212023          	sw	s2,32(sp)
   105e8:	01712623          	sw	s7,12(sp)
   105ec:	00050a93          	mv	s5,a0
   105f0:	00058a13          	mv	s4,a1
   105f4:	00100b13          	li	s6,1
   105f8:	1489a483          	lw	s1,328(s3)
   105fc:	00048c63          	beqz	s1,10614 <__call_exitprocs+0x5c>
   10600:	0044a403          	lw	s0,4(s1)
   10604:	fff40913          	addi	s2,s0,-1
   10608:	00241413          	slli	s0,s0,0x2
   1060c:	00848433          	add	s0,s1,s0
   10610:	02095863          	bgez	s2,10640 <__call_exitprocs+0x88>
   10614:	02c12083          	lw	ra,44(sp)
   10618:	02812403          	lw	s0,40(sp)
   1061c:	02412483          	lw	s1,36(sp)
   10620:	02012903          	lw	s2,32(sp)
   10624:	01c12983          	lw	s3,28(sp)
   10628:	01812a03          	lw	s4,24(sp)
   1062c:	01412a83          	lw	s5,20(sp)
   10630:	01012b03          	lw	s6,16(sp)
   10634:	00c12b83          	lw	s7,12(sp)
   10638:	03010113          	addi	sp,sp,48
   1063c:	00008067          	ret
   10640:	000a0c63          	beqz	s4,10658 <__call_exitprocs+0xa0>
   10644:	10442783          	lw	a5,260(s0)
   10648:	01478863          	beq	a5,s4,10658 <__call_exitprocs+0xa0>
   1064c:	fff90913          	addi	s2,s2,-1
   10650:	ffc40413          	addi	s0,s0,-4
   10654:	fbdff06f          	j	10610 <__call_exitprocs+0x58>
   10658:	0044a703          	lw	a4,4(s1)
   1065c:	00442783          	lw	a5,4(s0)
   10660:	fff70713          	addi	a4,a4,-1
   10664:	03271c63          	bne	a4,s2,1069c <__call_exitprocs+0xe4>
   10668:	0124a223          	sw	s2,4(s1)
   1066c:	fe0780e3          	beqz	a5,1064c <__call_exitprocs+0x94>
   10670:	1884a683          	lw	a3,392(s1)
   10674:	012b1733          	sll	a4,s6,s2
   10678:	0044ab83          	lw	s7,4(s1)
   1067c:	00d776b3          	and	a3,a4,a3
   10680:	02069263          	bnez	a3,106a4 <__call_exitprocs+0xec>
   10684:	000780e7          	jalr	a5
   10688:	0044a703          	lw	a4,4(s1)
   1068c:	1489a783          	lw	a5,328(s3)
   10690:	f77714e3          	bne	a4,s7,105f8 <__call_exitprocs+0x40>
   10694:	faf48ce3          	beq	s1,a5,1064c <__call_exitprocs+0x94>
   10698:	f61ff06f          	j	105f8 <__call_exitprocs+0x40>
   1069c:	00042223          	sw	zero,4(s0)
   106a0:	fcdff06f          	j	1066c <__call_exitprocs+0xb4>
   106a4:	18c4a683          	lw	a3,396(s1)
   106a8:	08442583          	lw	a1,132(s0)
   106ac:	00d77733          	and	a4,a4,a3
   106b0:	00071863          	bnez	a4,106c0 <__call_exitprocs+0x108>
   106b4:	000a8513          	mv	a0,s5
   106b8:	000780e7          	jalr	a5
   106bc:	fcdff06f          	j	10688 <__call_exitprocs+0xd0>
   106c0:	00058513          	mv	a0,a1
   106c4:	000780e7          	jalr	a5
   106c8:	fc1ff06f          	j	10688 <__call_exitprocs+0xd0>

000106cc <_exit>:
   106cc:	00000593          	li	a1,0
   106d0:	00000613          	li	a2,0
   106d4:	00000693          	li	a3,0
   106d8:	00000713          	li	a4,0
   106dc:	00000793          	li	a5,0
   106e0:	05d00893          	li	a7,93
   106e4:	00000073          	ecall
   106e8:	02055263          	bgez	a0,1070c <_exit+0x40>
   106ec:	ff010113          	addi	sp,sp,-16
   106f0:	00812423          	sw	s0,8(sp)
   106f4:	00050413          	mv	s0,a0
   106f8:	00112623          	sw	ra,12(sp)
   106fc:	40800433          	neg	s0,s0
   10700:	010000ef          	jal	ra,10710 <__errno>
   10704:	00852023          	sw	s0,0(a0)
   10708:	0000006f          	j	10708 <_exit+0x3c>
   1070c:	0000006f          	j	1070c <_exit+0x40>

00010710 <__errno>:
   10710:	00001797          	auipc	a5,0x1
   10714:	47c78793          	addi	a5,a5,1148 # 11b8c <_impure_ptr>
   10718:	0007a503          	lw	a0,0(a5)
   1071c:	00008067          	ret
