
main.o:     file format elf32-littleriscv


Disassembly of section .text:

00000000 <main>:
   0:	fe010113          	addi	sp,sp,-32
   4:	00812e23          	sw	s0,28(sp)
   8:	02010413          	addi	s0,sp,32
   c:	00000013          	nop
  10:	00000013          	nop
  14:	00000013          	nop
  18:	00000013          	nop
  1c:	00000013          	nop
  20:	00000013          	nop
  24:	00000013          	nop
  28:	00000013          	nop
  2c:	00000013          	nop
  30:	00000013          	nop
  34:	00000013          	nop
  38:	00000013          	nop
  3c:	00000013          	nop
  40:	00000013          	nop
  44:	00000013          	nop
  48:	00000013          	nop
  4c:	00000013          	nop
  50:	00000013          	nop
  54:	00000013          	nop
  58:	00000013          	nop
  5c:	00000013          	nop
  60:	00000013          	nop
  64:	00000013          	nop
  68:	00000013          	nop
  6c:	00000013          	nop
  70:	00000013          	nop
  74:	00000013          	nop
  78:	00000013          	nop
  7c:	00000013          	nop
  80:	100127b7          	lui	a5,0x10012
  84:	00c78793          	addi	a5,a5,12 # 1001200c <.L2+0x10011f30>
  88:	fef42623          	sw	a5,-20(s0)
  8c:	000007b7          	lui	a5,0x0
  90:	00f00713          	li	a4,15
  94:	00e7a023          	sw	a4,0(a5) # 0 <main>
  98:	000007b7          	lui	a5,0x0
  9c:	00f00713          	li	a4,15
  a0:	00e7a023          	sw	a4,0(a5) # 0 <main>
  a4:	000007b7          	lui	a5,0x0
  a8:	00500713          	li	a4,5
  ac:	00e7a023          	sw	a4,0(a5) # 0 <main>
  b0:	000007b7          	lui	a5,0x0
  b4:	0007a703          	lw	a4,0(a5) # 0 <main>
  b8:	000007b7          	lui	a5,0x0
  bc:	0007a783          	lw	a5,0(a5) # 0 <main>
  c0:	00f75e63          	ble	a5,a4,dc <.L2>
  c4:	fec42783          	lw	a5,-20(s0)
  c8:	00400737          	lui	a4,0x400
  cc:	00e7a023          	sw	a4,0(a5)
  d0:	fec42783          	lw	a5,-20(s0)
  d4:	00400737          	lui	a4,0x400
  d8:	00e7a023          	sw	a4,0(a5)

000000dc <.L2>:
  dc:	fec42783          	lw	a5,-20(s0)
  e0:	00080737          	lui	a4,0x80
  e4:	00e7a023          	sw	a4,0(a5)
  e8:	00000793          	li	a5,0
  ec:	00078513          	mv	a0,a5
  f0:	01c12403          	lw	s0,28(sp)
  f4:	02010113          	addi	sp,sp,32
  f8:	00008067          	ret
